; Function Attrs: mustprogress nofree norecurse nosync nounwind willreturn memory(read, inaccessiblemem: none) uwtable
define noundef i64 @_ZNK5arrow6Tensor4sizeEv(ptr nocapture noundef nonnull readonly align 8 dereferenceable(112) %this) local_unnamed_addr #6 align 2 {
entry:
  %shape_ = getelementptr inbounds i8, ptr %this, i64 40
  %0 = load ptr, ptr %shape_, align 8
  %_M_finish.i = getelementptr inbounds i8, ptr %this, i64 48
  %1 = load ptr, ptr %_M_finish.i, align 8
  %cmp.i.not4.i = icmp eq ptr %0, %1
  br i1 %cmp.i.not4.i, label %_ZSt10accumulateIN9__gnu_cxx17__normal_iteratorIPKlSt6vectorIlSaIlEEEExSt10multipliesIlEET0_T_SB_SA_T1_.exit, label %for.body.i

for.body.i:                                       ; preds = %entry, %for.body.i
  %__init.addr.06.i = phi i64 [ %mul.i.i, %for.body.i ], [ 1, %entry ]
  %__first.sroa.0.05.i = phi ptr [ %incdec.ptr.i.i, %for.body.i ], [ %0, %entry ]
  %2 = load i64, ptr %__first.sroa.0.05.i, align 8
  %mul.i.i = mul nsw i64 %2, %__init.addr.06.i
  %incdec.ptr.i.i = getelementptr inbounds i8, ptr %__first.sroa.0.05.i, i64 8
  %cmp.i.not.i = icmp eq ptr %incdec.ptr.i.i, %1
  br i1 %cmp.i.not.i, label %_ZSt10accumulateIN9__gnu_cxx17__normal_iteratorIPKlSt6vectorIlSaIlEEEExSt10multipliesIlEET0_T_SB_SA_T1_.exit, label %for.body.i, !llvm.loop !49

_ZSt10accumulateIN9__gnu_cxx17__normal_iteratorIPKlSt6vectorIlSaIlEEEExSt10multipliesIlEET0_T_SB_SA_T1_.exit: ; preds = %for.body.i, %entry
  %__init.addr.0.lcssa.i = phi i64 [ 1, %entry ], [ %mul.i.i, %for.body.i ]
  ret i64 %__init.addr.0.lcssa.i
}